target datalayout = "e-m:e-p270:32:32-p271:32:32-p272:64:64-i64:64-i128:128-f80:128-n8:16:32:64-S128"
target triple = "x86_64-pc-linux-gnu"

%struct.IndexTupleData = type { %struct.ItemPointerData, i16 }
%struct.ItemPointerData = type { %struct.BlockIdData, i16 }
%struct.BlockIdData = type { i16, i16 }

@.str.1 = private unnamed_addr constant [11 x i8] c"nbtdedup.c\00", align 1
@.str.3 = private unnamed_addr constant [62 x i8] c"posting list tuple with %d items cannot be split at offset %d\00", align 1
@__func__._bt_swap_posting = private unnamed_addr constant [17 x i8] c"_bt_swap_posting\00", align 1

; Function Attrs: inlinehint nounwind uwtable
define internal i32 @BlockIdGetBlockNumber(ptr noundef %0) #2 {
  %2 = alloca ptr, align 8
  store ptr %0, ptr %2, align 8
  %3 = load ptr, ptr %2, align 8
  %4 = getelementptr inbounds nuw %struct.BlockIdData, ptr %3, i32 0, i32 0
  %5 = load i16, ptr %4, align 2
  %6 = zext i16 %5 to i32
  %7 = shl i32 %6, 16
  %8 = load ptr, ptr %2, align 8
  %9 = getelementptr inbounds nuw %struct.BlockIdData, ptr %8, i32 0, i32 1
  %10 = load i16, ptr %9, align 2
  %11 = zext i16 %10 to i32
  %12 = or i32 %7, %11
  ret i32 %12
}

; Function Attrs: inlinehint nounwind uwtable
define internal i32 @ItemPointerGetBlockNumberNoCheck(ptr noundef %0) #2 {
  %2 = alloca ptr, align 8
  store ptr %0, ptr %2, align 8
  %3 = load ptr, ptr %2, align 8
  %4 = getelementptr inbounds nuw %struct.ItemPointerData, ptr %3, i32 0, i32 0
  %5 = call i32 @BlockIdGetBlockNumber(ptr noundef %4)
  ret i32 %5
}

; Function Attrs: inlinehint nounwind uwtable
define internal i32 @BTreeTupleGetPostingOffset(ptr noundef %0) #2 {
  %2 = alloca ptr, align 8
  store ptr %0, ptr %2, align 8
  %3 = load ptr, ptr %2, align 8
  %4 = getelementptr inbounds nuw %struct.IndexTupleData, ptr %3, i32 0, i32 0
  %5 = call i32 @ItemPointerGetBlockNumberNoCheck(ptr noundef %4)
  ret i32 %5
}

; Function Attrs: inlinehint nounwind uwtable
define internal zeroext i1 @BTreeTupleIsPosting(ptr noundef %0) #2 {
  %2 = alloca i1, align 1
  %3 = alloca ptr, align 8
  store ptr %0, ptr %3, align 8
  %4 = load ptr, ptr %3, align 8
  %5 = getelementptr inbounds nuw %struct.IndexTupleData, ptr %4, i32 0, i32 1
  %6 = load i16, ptr %5, align 2
  %7 = zext i16 %6 to i32
  %8 = and i32 %7, 8192
  %9 = icmp eq i32 %8, 0
  br i1 %9, label %10, label %11

10:                                               ; preds = %1
  store i1 false, ptr %2, align 1
  br label %20

11:                                               ; preds = %1
  %12 = load ptr, ptr %3, align 8
  %13 = getelementptr inbounds nuw %struct.IndexTupleData, ptr %12, i32 0, i32 0
  %14 = call zeroext i16 @ItemPointerGetOffsetNumberNoCheck(ptr noundef %13)
  %15 = zext i16 %14 to i32
  %16 = and i32 %15, 8192
  %17 = icmp eq i32 %16, 0
  br i1 %17, label %18, label %19

18:                                               ; preds = %11
  store i1 false, ptr %2, align 1
  br label %20

19:                                               ; preds = %11
  store i1 true, ptr %2, align 1
  br label %20

20:                                               ; preds = %19, %18, %10
  %21 = load i1, ptr %2, align 1
  ret i1 %21
}

; Function Attrs: inlinehint nounwind uwtable
define internal ptr @BTreeTupleGetPosting(ptr noundef %0) #2 {
  %2 = alloca ptr, align 8
  store ptr %0, ptr %2, align 8
  %3 = load ptr, ptr %2, align 8
  %4 = load ptr, ptr %2, align 8
  %5 = call i32 @BTreeTupleGetPostingOffset(ptr noundef %4)
  %6 = zext i32 %5 to i64
  %7 = getelementptr inbounds nuw i8, ptr %3, i64 %6
  ret ptr %7
}

; Function Attrs: inlinehint nounwind uwtable
define internal zeroext i16 @ItemPointerGetOffsetNumberNoCheck(ptr noundef %0) #2 {
  %2 = alloca ptr, align 8
  store ptr %0, ptr %2, align 8
  %3 = load ptr, ptr %2, align 8
  %4 = getelementptr inbounds nuw %struct.ItemPointerData, ptr %3, i32 0, i32 1
  %5 = load i16, ptr %4, align 2
  ret i16 %5
}

; Function Attrs: inlinehint nounwind uwtable
define internal ptr @BTreeTupleGetMaxHeapTID(ptr noundef %0) #2 {
  %2 = alloca ptr, align 8
  %3 = alloca ptr, align 8
  %4 = alloca i16, align 2
  store ptr %0, ptr %3, align 8
  %5 = load ptr, ptr %3, align 8
  %6 = call zeroext i1 @BTreeTupleIsPosting(ptr noundef %5)
  br i1 %6, label %7, label %15

7:                                                ; preds = %1
  call void @llvm.lifetime.start.p0(i64 2, ptr %4) #6
  %8 = load ptr, ptr %3, align 8
  %9 = call zeroext i16 @BTreeTupleGetNPosting(ptr noundef %8)
  store i16 %9, ptr %4, align 2
  %10 = load ptr, ptr %3, align 8
  %11 = load i16, ptr %4, align 2
  %12 = zext i16 %11 to i32
  %13 = sub i32 %12, 1
  %14 = call ptr @BTreeTupleGetPostingN(ptr noundef %10, i32 noundef %13)
  store ptr %14, ptr %2, align 8
  call void @llvm.lifetime.end.p0(i64 2, ptr %4) #6
  br label %18

15:                                               ; preds = %1
  %16 = load ptr, ptr %3, align 8
  %17 = getelementptr inbounds nuw %struct.IndexTupleData, ptr %16, i32 0, i32 0
  store ptr %17, ptr %2, align 8
  br label %18

18:                                               ; preds = %15, %7
  %19 = load ptr, ptr %2, align 8
  ret ptr %19
}

; Function Attrs: inlinehint nounwind uwtable
define internal void @ItemPointerCopy(ptr noundef %0, ptr noundef %1) #2 {
  %3 = alloca ptr, align 8
  %4 = alloca ptr, align 8
  store ptr %0, ptr %3, align 8
  store ptr %1, ptr %4, align 8
  %5 = load ptr, ptr %4, align 8
  %6 = load ptr, ptr %3, align 8
  call void @llvm.memcpy.p0.p0.i64(ptr align 2 %5, ptr align 2 %6, i64 6, i1 false)
  ret void
}

; Function Attrs: inlinehint nounwind uwtable
define internal ptr @BTreeTupleGetPostingN(ptr noundef %0, i32 noundef %1) #2 {
  %3 = alloca ptr, align 8
  %4 = alloca i32, align 4
  store ptr %0, ptr %3, align 8
  store i32 %1, ptr %4, align 4
  %5 = load ptr, ptr %3, align 8
  %6 = call ptr @BTreeTupleGetPosting(ptr noundef %5)
  %7 = load i32, ptr %4, align 4
  %8 = sext i32 %7 to i64
  %9 = getelementptr inbounds %struct.ItemPointerData, ptr %6, i64 %8
  ret ptr %9
}

; Function Attrs: inlinehint nounwind uwtable
define internal zeroext i16 @BTreeTupleGetNPosting(ptr noundef %0) #2 {
  %2 = alloca ptr, align 8
  %3 = alloca i16, align 2
  store ptr %0, ptr %2, align 8
  call void @llvm.lifetime.start.p0(i64 2, ptr %3) #6
  %4 = load ptr, ptr %2, align 8
  %5 = getelementptr inbounds nuw %struct.IndexTupleData, ptr %4, i32 0, i32 0
  %6 = call zeroext i16 @ItemPointerGetOffsetNumberNoCheck(ptr noundef %5)
  store i16 %6, ptr %3, align 2
  %7 = load i16, ptr %3, align 2
  %8 = zext i16 %7 to i32
  %9 = and i32 %8, 4095
  %10 = trunc i32 %9 to i16
  call void @llvm.lifetime.end.p0(i64 2, ptr %3) #6
  ret i16 %10
}

; Function Attrs: nounwind uwtable
define dso_local ptr @_bt_swap_posting(ptr noundef %0, ptr noundef %1, i32 noundef %2) #0 {
  %4 = alloca ptr, align 8
  %5 = alloca ptr, align 8
  %6 = alloca i32, align 4
  %7 = alloca i32, align 4
  %8 = alloca ptr, align 8
  %9 = alloca ptr, align 8
  %10 = alloca i64, align 8
  %11 = alloca ptr, align 8
  store ptr %0, ptr %4, align 8
  store ptr %1, ptr %5, align 8
  store i32 %2, ptr %6, align 4
  call void @llvm.lifetime.start.p0(i64 4, ptr %7) #6
  call void @llvm.lifetime.start.p0(i64 8, ptr %8) #6
  call void @llvm.lifetime.start.p0(i64 8, ptr %9) #6
  call void @llvm.lifetime.start.p0(i64 8, ptr %10) #6
  call void @llvm.lifetime.start.p0(i64 8, ptr %11) #6
  %12 = load ptr, ptr %5, align 8
  %13 = call zeroext i16 @BTreeTupleGetNPosting(ptr noundef %12)
  %14 = zext i16 %13 to i32
  store i32 %14, ptr %7, align 4
  %15 = load i32, ptr %6, align 4
  %16 = icmp sgt i32 %15, 0
  br i1 %16, label %17, label %21

17:                                               ; preds = %3
  %18 = load i32, ptr %6, align 4
  %19 = load i32, ptr %7, align 4
  %20 = icmp slt i32 %18, %19
  br i1 %20, label %34, label %21

21:                                               ; preds = %17, %3
  br label %22

22:                                               ; preds = %21
  br i1 true, label %23, label %25

23:                                               ; preds = %22
  %24 = call zeroext i1 @errstart_cold(i32 noundef 21, ptr noundef null) #7
  br i1 %24, label %27, label %31

25:                                               ; preds = %22
  %26 = call zeroext i1 @errstart(i32 noundef 21, ptr noundef null)
  br i1 %26, label %27, label %31

27:                                               ; preds = %25, %23
  %28 = load i32, ptr %7, align 4
  %29 = load i32, ptr %6, align 4
  %30 = call i32 (ptr, ...) @errmsg_internal(ptr noundef @.str.3, i32 noundef %28, i32 noundef %29)
  call void @errfinish(ptr noundef @.str.1, i32 noundef 1044, ptr noundef @__func__._bt_swap_posting)
  br label %31

31:                                               ; preds = %27, %25, %23
  unreachable

32:                                               ; No predecessors!
  br label %33

33:                                               ; preds = %32
  br label %34

34:                                               ; preds = %33, %17
  %35 = load ptr, ptr %5, align 8
  %36 = call ptr @CopyIndexTuple(ptr noundef %35)
  store ptr %36, ptr %11, align 8
  %37 = load ptr, ptr %11, align 8
  %38 = load i32, ptr %6, align 4
  %39 = call ptr @BTreeTupleGetPostingN(ptr noundef %37, i32 noundef %38)
  store ptr %39, ptr %8, align 8
  %40 = load ptr, ptr %11, align 8
  %41 = load i32, ptr %6, align 4
  %42 = add i32 %41, 1
  %43 = call ptr @BTreeTupleGetPostingN(ptr noundef %40, i32 noundef %42)
  store ptr %43, ptr %9, align 8
  %44 = load i32, ptr %7, align 4
  %45 = load i32, ptr %6, align 4
  %46 = sub i32 %44, %45
  %47 = sub i32 %46, 1
  %48 = sext i32 %47 to i64
  %49 = mul i64 %48, 6
  store i64 %49, ptr %10, align 8
  %50 = load ptr, ptr %9, align 8
  %51 = load ptr, ptr %8, align 8
  %52 = load i64, ptr %10, align 8
  call void @llvm.memmove.p0.p0.i64(ptr align 1 %50, ptr align 1 %51, i64 %52, i1 false)
  %53 = load ptr, ptr %4, align 8
  %54 = getelementptr inbounds nuw %struct.IndexTupleData, ptr %53, i32 0, i32 0
  %55 = load ptr, ptr %8, align 8
  call void @ItemPointerCopy(ptr noundef %54, ptr noundef %55)
  %56 = load ptr, ptr %5, align 8
  %57 = call ptr @BTreeTupleGetMaxHeapTID(ptr noundef %56)
  %58 = load ptr, ptr %4, align 8
  %59 = getelementptr inbounds nuw %struct.IndexTupleData, ptr %58, i32 0, i32 0
  call void @ItemPointerCopy(ptr noundef %57, ptr noundef %59)
  %60 = load ptr, ptr %11, align 8
  call void @llvm.lifetime.end.p0(i64 8, ptr %11) #6
  call void @llvm.lifetime.end.p0(i64 8, ptr %10) #6
  call void @llvm.lifetime.end.p0(i64 8, ptr %9) #6
  call void @llvm.lifetime.end.p0(i64 8, ptr %8) #6
  call void @llvm.lifetime.end.p0(i64 4, ptr %7) #6
  ret ptr %60
}