; Function Attrs: nounwind uwtable
define dso_local noundef ptr @_bt_swap_posting(ptr noundef captures(none) %0, ptr noundef %1, i32 noundef %2) local_unnamed_addr #0 {
  %4 = getelementptr i8, ptr %1, i64 4
  %.val = load i16, ptr %4, align 2
  %5 = and i16 %.val, 4095
  %6 = zext nneg i16 %5 to i32
  %7 = icmp sgt i32 %2, 0
  %8 = icmp samesign ult i32 %2, %6
  %or.cond = select i1 %7, i1 %8, i1 false
  br i1 %or.cond, label %12, label %9

9:                                                ; preds = %3
  %10 = tail call zeroext i1 @errstart_cold(i32 noundef 21, ptr noundef null) #11
  tail call void @llvm.assume(i1 %10)
  %11 = tail call i32 (ptr, ...) @errmsg_internal(ptr noundef nonnull @.str.3, i32 noundef %6, i32 noundef %2) #10
  tail call void @errfinish(ptr noundef nonnull @.str.1, i32 noundef 1044, ptr noundef nonnull @__func__._bt_swap_posting) #10
  unreachable

12:                                               ; preds = %3
  %13 = tail call ptr @CopyIndexTuple(ptr noundef nonnull %1) #10
  %.val.i.i = load i16, ptr %13, align 2
  %14 = getelementptr i8, ptr %13, i64 2
  %.val2.i.i = load i16, ptr %14, align 2
  %15 = zext i16 %.val.i.i to i64
  %16 = shl nuw nsw i64 %15, 16
  %17 = zext i16 %.val2.i.i to i64
  %18 = or disjoint i64 %16, %17
  %19 = getelementptr inbounds nuw i8, ptr %13, i64 %18
  %20 = zext nneg i32 %2 to i64
  %21 = getelementptr inbounds nuw %struct.ItemPointerData, ptr %19, i64 %20
  %22 = getelementptr inbounds nuw i8, ptr %21, i64 6
  %23 = xor i32 %2, -1
  %24 = add nsw i32 %6, %23
  %25 = sext i32 %24 to i64
  %26 = mul nsw i64 %25, 6
  tail call void @llvm.memmove.p0.p0.i64(ptr nonnull align 1 %22, ptr nonnull align 1 %21, i64 %26, i1 false)
  tail call void @llvm.memcpy.p0.p0.i64(ptr noundef nonnull align 2 dereferenceable(6) %21, ptr noundef nonnull readonly align 2 dereferenceable(6) %0, i64 6, i1 false)
  %27 = getelementptr inbounds nuw i8, ptr %1, i64 6
  %28 = load i16, ptr %27, align 2
  %29 = and i16 %28, 8192
  %30 = icmp eq i16 %29, 0
  br i1 %30, label %BTreeTupleGetMaxHeapTID.exit, label %BTreeTupleIsPosting.exit.i

BTreeTupleIsPosting.exit.i:                       ; preds = %12
  %.val.i.i23 = load i16, ptr %4, align 2
  %31 = and i16 %.val.i.i23, 8192
  %.not.i = icmp eq i16 %31, 0
  br i1 %.not.i, label %BTreeTupleGetMaxHeapTID.exit, label %32

32:                                               ; preds = %BTreeTupleIsPosting.exit.i
  %33 = and i16 %.val.i.i23, 4095
  %34 = zext nneg i16 %33 to i64
  %.val.i.i.i = load i16, ptr %1, align 2
  %35 = getelementptr i8, ptr %1, i64 2
  %.val2.i.i.i = load i16, ptr %35, align 2
  %36 = zext i16 %.val.i.i.i to i64
  %37 = shl nuw nsw i64 %36, 16
  %38 = zext i16 %.val2.i.i.i to i64
  %39 = or disjoint i64 %37, %38
  %40 = getelementptr inbounds nuw i8, ptr %1, i64 %39
  %41 = getelementptr %struct.ItemPointerData, ptr %40, i64 %34
  %42 = getelementptr i8, ptr %41, i64 -6
  br label %BTreeTupleGetMaxHeapTID.exit

BTreeTupleGetMaxHeapTID.exit:                     ; preds = %12, %BTreeTupleIsPosting.exit.i, %32
  %.0.i = phi ptr [ %42, %32 ], [ %1, %BTreeTupleIsPosting.exit.i ], [ %1, %12 ]
  tail call void @llvm.memcpy.p0.p0.i64(ptr noundef nonnull align 2 dereferenceable(6) %0, ptr noundef nonnull readonly align 2 dereferenceable(6) %.0.i, i64 6, i1 false)
  ret ptr %13
}